target datalayout = "e-m:e-p270:32:32-p271:32:32-p272:64:64-i64:64-i128:128-f80:128-n8:16:32:64-S128"
target triple = "x86_64-pc-linux-gnu"

%struct.Pdr_Man_t_ = type { ptr, ptr, ptr, ptr, ptr, ptr, ptr, ptr, %struct.Vec_Ptr_t_, ptr, i32, i32, ptr, ptr, ptr, ptr, ptr, ptr, i32, i32, ptr, ptr, ptr, i32, i32, ptr, ptr, ptr, ptr, ptr, ptr, ptr, ptr, ptr, ptr, ptr, ptr, ptr, ptr, i32, i32, i32, i32, i32, i32, i32, i32, i32, i32, i32, i32, i32, i32, i32, i32, i32, i64, i64, i64, i64, i64, i64, i64, i64, i64, i64, i64, i64 }
%struct.Vec_Ptr_t_ = type { i32, i32, ptr }
%struct.Aig_Man_t_ = type { ptr, ptr, ptr, ptr, ptr, ptr, ptr, %struct.Aig_Obj_t_, i32, i32, i32, i32, i32, i32, [7 x i32], i32, ptr, i32, ptr, i32, ptr, i32, i32, i32, ptr, i32, i32, i32, i32, i32, ptr, ptr, i32, ptr, ptr, i32, ptr, ptr, i32, i32, i32, ptr, ptr, ptr, ptr, ptr, ptr, ptr, ptr, ptr, ptr, ptr, ptr, ptr, ptr, i32, ptr, ptr, ptr, ptr, i32, i64, i64, i64, ptr, ptr }
%struct.Aig_Obj_t_ = type { %union.anon, ptr, ptr, i64, i32, i32, %union.anon.0 }
%union.anon = type { ptr }
%union.anon.0 = type { ptr }
%struct.Vec_Int_t_ = type { i32, i32, ptr }
%struct.Pdr_Set_t_ = type { i64, i32, i32, i32, [0 x i32] }
%struct.timespec = type { i64, i64 }

; Function Attrs: nounwind uwtable
define internal void @Vec_IntGrow(ptr noundef %0, i32 noundef %1) #0 {
  %3 = alloca ptr, align 8
  %4 = alloca i32, align 4
  store ptr %0, ptr %3, align 8
  store i32 %1, ptr %4, align 4
  %5 = load ptr, ptr %3, align 8
  %6 = getelementptr inbounds %struct.Vec_Int_t_, ptr %5, i32 0, i32 0
  %7 = load i32, ptr %6, align 8
  %8 = load i32, ptr %4, align 4
  %9 = icmp sge i32 %7, %8
  br i1 %9, label %10, label %11

10:                                               ; preds = %2
  br label %36

11:                                               ; preds = %2
  %12 = load ptr, ptr %3, align 8
  %13 = getelementptr inbounds %struct.Vec_Int_t_, ptr %12, i32 0, i32 2
  %14 = load ptr, ptr %13, align 8
  %15 = icmp ne ptr %14, null
  br i1 %15, label %16, label %24

16:                                               ; preds = %11
  %17 = load ptr, ptr %3, align 8
  %18 = getelementptr inbounds %struct.Vec_Int_t_, ptr %17, i32 0, i32 2
  %19 = load ptr, ptr %18, align 8
  %20 = load i32, ptr %4, align 4
  %21 = sext i32 %20 to i64
  %22 = mul i64 4, %21
  %23 = call ptr @realloc(ptr noundef %19, i64 noundef %22) #5
  br label %29

24:                                               ; preds = %11
  %25 = load i32, ptr %4, align 4
  %26 = sext i32 %25 to i64
  %27 = mul i64 4, %26
  %28 = call noalias ptr @malloc(i64 noundef %27) #6
  br label %29

29:                                               ; preds = %24, %16
  %30 = phi ptr [ %23, %16 ], [ %28, %24 ]
  %31 = load ptr, ptr %3, align 8
  %32 = getelementptr inbounds %struct.Vec_Int_t_, ptr %31, i32 0, i32 2
  store ptr %30, ptr %32, align 8
  %33 = load i32, ptr %4, align 4
  %34 = load ptr, ptr %3, align 8
  %35 = getelementptr inbounds %struct.Vec_Int_t_, ptr %34, i32 0, i32 0
  store i32 %33, ptr %35, align 8
  br label %36

36:                                               ; preds = %29, %10
  ret void
}

; Function Attrs: nounwind uwtable
define internal i32 @Saig_ManPiNum(ptr noundef %0) #0 {
  %2 = alloca ptr, align 8
  store ptr %0, ptr %2, align 8
  %3 = load ptr, ptr %2, align 8
  %4 = getelementptr inbounds %struct.Aig_Man_t_, ptr %3, i32 0, i32 9
  %5 = load i32, ptr %4, align 4
  ret i32 %5
}

; Function Attrs: nounwind uwtable
define internal ptr @Vec_PtrEntry(ptr noundef %0, i32 noundef %1) #0 {
  %3 = alloca ptr, align 8
  %4 = alloca i32, align 4
  store ptr %0, ptr %3, align 8
  store i32 %1, ptr %4, align 4
  %5 = load ptr, ptr %3, align 8
  %6 = getelementptr inbounds %struct.Vec_Ptr_t_, ptr %5, i32 0, i32 2
  %7 = load ptr, ptr %6, align 8
  %8 = load i32, ptr %4, align 4
  %9 = sext i32 %8 to i64
  %10 = getelementptr inbounds ptr, ptr %7, i64 %9
  %11 = load ptr, ptr %10, align 8
  ret ptr %11
}

; Function Attrs: nounwind uwtable
define internal i32 @Saig_ManPoNum(ptr noundef %0) #0 {
  %2 = alloca ptr, align 8
  store ptr %0, ptr %2, align 8
  %3 = load ptr, ptr %2, align 8
  %4 = getelementptr inbounds %struct.Aig_Man_t_, ptr %3, i32 0, i32 10
  %5 = load i32, ptr %4, align 8
  ret i32 %5
}

; Function Attrs: nounwind uwtable
define internal void @Vec_IntPush(ptr noundef %0, i32 noundef %1) #0 {
  %3 = alloca ptr, align 8
  %4 = alloca i32, align 4
  store ptr %0, ptr %3, align 8
  store i32 %1, ptr %4, align 4
  %5 = load ptr, ptr %3, align 8
  %6 = getelementptr inbounds %struct.Vec_Int_t_, ptr %5, i32 0, i32 1
  %7 = load i32, ptr %6, align 4
  %8 = load ptr, ptr %3, align 8
  %9 = getelementptr inbounds %struct.Vec_Int_t_, ptr %8, i32 0, i32 0
  %10 = load i32, ptr %9, align 8
  %11 = icmp eq i32 %7, %10
  br i1 %11, label %12, label %26

12:                                               ; preds = %2
  %13 = load ptr, ptr %3, align 8
  %14 = getelementptr inbounds %struct.Vec_Int_t_, ptr %13, i32 0, i32 0
  %15 = load i32, ptr %14, align 8
  %16 = icmp slt i32 %15, 16
  br i1 %16, label %17, label %19

17:                                               ; preds = %12
  %18 = load ptr, ptr %3, align 8
  call void @Vec_IntGrow(ptr noundef %18, i32 noundef 16)
  br label %25

19:                                               ; preds = %12
  %20 = load ptr, ptr %3, align 8
  %21 = load ptr, ptr %3, align 8
  %22 = getelementptr inbounds %struct.Vec_Int_t_, ptr %21, i32 0, i32 0
  %23 = load i32, ptr %22, align 8
  %24 = mul nsw i32 2, %23
  call void @Vec_IntGrow(ptr noundef %20, i32 noundef %24)
  br label %25

25:                                               ; preds = %19, %17
  br label %26

26:                                               ; preds = %25, %2
  %27 = load i32, ptr %4, align 4
  %28 = load ptr, ptr %3, align 8
  %29 = getelementptr inbounds %struct.Vec_Int_t_, ptr %28, i32 0, i32 2
  %30 = load ptr, ptr %29, align 8
  %31 = load ptr, ptr %3, align 8
  %32 = getelementptr inbounds %struct.Vec_Int_t_, ptr %31, i32 0, i32 1
  %33 = load i32, ptr %32, align 4
  %34 = add nsw i32 %33, 1
  store i32 %34, ptr %32, align 4
  %35 = sext i32 %33 to i64
  %36 = getelementptr inbounds i32, ptr %30, i64 %35
  store i32 %27, ptr %36, align 4
  ret void
}

; Function Attrs: nounwind uwtable
define internal i32 @Abc_Var2Lit(i32 noundef %0, i32 noundef %1) #0 {
  %3 = alloca i32, align 4
  %4 = alloca i32, align 4
  store i32 %0, ptr %3, align 4
  store i32 %1, ptr %4, align 4
  %5 = load i32, ptr %3, align 4
  %6 = load i32, ptr %3, align 4
  %7 = add nsw i32 %5, %6
  %8 = load i32, ptr %4, align 4
  %9 = add nsw i32 %7, %8
  ret i32 %9
}

; Function Attrs: nounwind uwtable
define internal i32 @Abc_MaxInt(i32 noundef %0, i32 noundef %1) #0 {
  %3 = alloca i32, align 4
  %4 = alloca i32, align 4
  store i32 %0, ptr %3, align 4
  store i32 %1, ptr %4, align 4
  %5 = load i32, ptr %3, align 4
  %6 = load i32, ptr %4, align 4
  %7 = icmp sgt i32 %5, %6
  br i1 %7, label %8, label %10

8:                                                ; preds = %2
  %9 = load i32, ptr %3, align 4
  br label %12

10:                                               ; preds = %2
  %11 = load i32, ptr %4, align 4
  br label %12

12:                                               ; preds = %10, %8
  %13 = phi i32 [ %9, %8 ], [ %11, %10 ]
  ret i32 %13
}

; Function Attrs: nounwind uwtable
define internal i32 @Abc_LitIsCompl(i32 noundef %0) #0 {
  %2 = alloca i32, align 4
  store i32 %0, ptr %2, align 4
  %3 = load i32, ptr %2, align 4
  %4 = and i32 %3, 1
  ret i32 %4
}

; Function Attrs: nounwind uwtable
define internal ptr @Saig_ManLo(ptr noundef %0, i32 noundef %1) #0 {
  %3 = alloca ptr, align 8
  %4 = alloca i32, align 4
  store ptr %0, ptr %3, align 8
  store i32 %1, ptr %4, align 4
  %5 = load ptr, ptr %3, align 8
  %6 = getelementptr inbounds %struct.Aig_Man_t_, ptr %5, i32 0, i32 2
  %7 = load ptr, ptr %6, align 8
  %8 = load ptr, ptr %3, align 8
  %9 = call i32 @Saig_ManPiNum(ptr noundef %8)
  %10 = load i32, ptr %4, align 4
  %11 = add nsw i32 %9, %10
  %12 = call ptr @Vec_PtrEntry(ptr noundef %7, i32 noundef %11)
  ret ptr %12
}

; Function Attrs: nounwind uwtable
define internal ptr @Saig_ManLi(ptr noundef %0, i32 noundef %1) #0 {
  %3 = alloca ptr, align 8
  %4 = alloca i32, align 4
  store ptr %0, ptr %3, align 8
  store i32 %1, ptr %4, align 4
  %5 = load ptr, ptr %3, align 8
  %6 = getelementptr inbounds %struct.Aig_Man_t_, ptr %5, i32 0, i32 3
  %7 = load ptr, ptr %6, align 8
  %8 = load ptr, ptr %3, align 8
  %9 = call i32 @Saig_ManPoNum(ptr noundef %8)
  %10 = load i32, ptr %4, align 4
  %11 = add nsw i32 %9, %10
  %12 = call ptr @Vec_PtrEntry(ptr noundef %7, i32 noundef %11)
  ret ptr %12
}

; Function Attrs: nounwind uwtable
define internal i32 @Abc_Lit2Var(i32 noundef %0) #0 {
  %2 = alloca i32, align 4
  store i32 %0, ptr %2, align 4
  %3 = load i32, ptr %2, align 4
  %4 = ashr i32 %3, 1
  ret i32 %4
}

; Function Attrs: nounwind uwtable
define internal void @Vec_IntClear(ptr noundef %0) #0 {
  %2 = alloca ptr, align 8
  store ptr %0, ptr %2, align 8
  %3 = load ptr, ptr %2, align 8
  %4 = getelementptr inbounds %struct.Vec_Int_t_, ptr %3, i32 0, i32 1
  store i32 0, ptr %4, align 4
  ret void
}

; Function Attrs: nounwind uwtable
define internal i64 @Abc_Clock() #0 {
  %1 = alloca i64, align 8
  %2 = alloca %struct.timespec, align 8
  %3 = alloca i64, align 8
  %4 = call i32 @clock_gettime(i32 noundef 1, ptr noundef %2) #7
  %5 = icmp slt i32 %4, 0
  br i1 %5, label %6, label %7

6:                                                ; preds = %0
  store i64 -1, ptr %1, align 8
  br label %18

7:                                                ; preds = %0
  %8 = getelementptr inbounds %struct.timespec, ptr %2, i32 0, i32 0
  %9 = load i64, ptr %8, align 8
  %10 = mul nsw i64 %9, 1000000
  store i64 %10, ptr %3, align 8
  %11 = getelementptr inbounds %struct.timespec, ptr %2, i32 0, i32 1
  %12 = load i64, ptr %11, align 8
  %13 = mul nsw i64 %12, 1000000
  %14 = sdiv i64 %13, 1000000000
  %15 = load i64, ptr %3, align 8
  %16 = add nsw i64 %15, %14
  store i64 %16, ptr %3, align 8
  %17 = load i64, ptr %3, align 8
  store i64 %17, ptr %1, align 8
  br label %18

18:                                               ; preds = %7, %6
  %19 = load i64, ptr %1, align 8
  ret i64 %19
}

; Function Attrs: nounwind uwtable
define ptr @Pdr_ManCubeToLits(ptr noundef %0, i32 noundef %1, ptr noundef %2, i32 noundef %3, i32 noundef %4) #0 {
  %6 = alloca ptr, align 8
  %7 = alloca i32, align 4
  %8 = alloca ptr, align 8
  %9 = alloca i32, align 4
  %10 = alloca i32, align 4
  %11 = alloca ptr, align 8
  %12 = alloca i32, align 4
  %13 = alloca i32, align 4
  %14 = alloca i32, align 4
  %15 = alloca i64, align 8
  store ptr %0, ptr %6, align 8
  store i32 %1, ptr %7, align 4
  store ptr %2, ptr %8, align 8
  store i32 %3, ptr %9, align 4
  store i32 %4, ptr %10, align 4
  store i32 0, ptr %14, align 4
  %16 = call i64 @Abc_Clock()
  store i64 %16, ptr %15, align 8
  %17 = load ptr, ptr %6, align 8
  %18 = getelementptr inbounds %struct.Pdr_Man_t_, ptr %17, i32 0, i32 27
  %19 = load ptr, ptr %18, align 8
  call void @Vec_IntClear(ptr noundef %19)
  store i32 0, ptr %12, align 4
  br label %20

20:                                               ; preds = %98, %5
  %21 = load i32, ptr %12, align 4
  %22 = load ptr, ptr %8, align 8
  %23 = getelementptr inbounds %struct.Pdr_Set_t_, ptr %22, i32 0, i32 3
  %24 = load i32, ptr %23, align 8
  %25 = icmp slt i32 %21, %24
  br i1 %25, label %26, label %101

26:                                               ; preds = %20
  %27 = load ptr, ptr %8, align 8
  %28 = getelementptr inbounds %struct.Pdr_Set_t_, ptr %27, i32 0, i32 4
  %29 = load i32, ptr %12, align 4
  %30 = sext i32 %29 to i64
  %31 = getelementptr inbounds [0 x i32], ptr %28, i64 0, i64 %30
  %32 = load i32, ptr %31, align 4
  %33 = icmp eq i32 %32, -1
  br i1 %33, label %34, label %35

34:                                               ; preds = %26
  br label %98

35:                                               ; preds = %26
  %36 = load i32, ptr %10, align 4
  %37 = icmp ne i32 %36, 0
  br i1 %37, label %38, label %50

38:                                               ; preds = %35
  %39 = load ptr, ptr %6, align 8
  %40 = getelementptr inbounds %struct.Pdr_Man_t_, ptr %39, i32 0, i32 1
  %41 = load ptr, ptr %40, align 8
  %42 = load ptr, ptr %8, align 8
  %43 = getelementptr inbounds %struct.Pdr_Set_t_, ptr %42, i32 0, i32 4
  %44 = load i32, ptr %12, align 4
  %45 = sext i32 %44 to i64
  %46 = getelementptr inbounds [0 x i32], ptr %43, i64 0, i64 %45
  %47 = load i32, ptr %46, align 4
  %48 = call i32 @Abc_Lit2Var(i32 noundef %47)
  %49 = call ptr @Saig_ManLi(ptr noundef %41, i32 noundef %48)
  store ptr %49, ptr %11, align 8
  br label %62

50:                                               ; preds = %35
  %51 = load ptr, ptr %6, align 8
  %52 = getelementptr inbounds %struct.Pdr_Man_t_, ptr %51, i32 0, i32 1
  %53 = load ptr, ptr %52, align 8
  %54 = load ptr, ptr %8, align 8
  %55 = getelementptr inbounds %struct.Pdr_Set_t_, ptr %54, i32 0, i32 4
  %56 = load i32, ptr %12, align 4
  %57 = sext i32 %56 to i64
  %58 = getelementptr inbounds [0 x i32], ptr %55, i64 0, i64 %57
  %59 = load i32, ptr %58, align 4
  %60 = call i32 @Abc_Lit2Var(i32 noundef %59)
  %61 = call ptr @Saig_ManLo(ptr noundef %53, i32 noundef %60)
  store ptr %61, ptr %11, align 8
  br label %62

62:                                               ; preds = %50, %38
  %63 = load ptr, ptr %6, align 8
  %64 = load i32, ptr %7, align 4
  %65 = load i32, ptr %10, align 4
  %66 = icmp ne i32 %65, 0
  br i1 %66, label %67, label %76

67:                                               ; preds = %62
  %68 = load ptr, ptr %8, align 8
  %69 = getelementptr inbounds %struct.Pdr_Set_t_, ptr %68, i32 0, i32 4
  %70 = load i32, ptr %12, align 4
  %71 = sext i32 %70 to i64
  %72 = getelementptr inbounds [0 x i32], ptr %69, i64 0, i64 %71
  %73 = load i32, ptr %72, align 4
  %74 = call i32 @Abc_LitIsCompl(i32 noundef %73)
  %75 = sub nsw i32 2, %74
  br label %77

76:                                               ; preds = %62
  br label %77

77:                                               ; preds = %76, %67
  %78 = phi i32 [ %75, %67 ], [ 3, %76 ]
  %79 = load ptr, ptr %11, align 8
  %80 = call i32 @Pdr_ObjSatVar(ptr noundef %63, i32 noundef %64, i32 noundef %78, ptr noundef %79)
  store i32 %80, ptr %13, align 4
  %81 = load i32, ptr %14, align 4
  %82 = load i32, ptr %13, align 4
  %83 = call i32 @Abc_MaxInt(i32 noundef %81, i32 noundef %82)
  store i32 %83, ptr %14, align 4
  %84 = load ptr, ptr %6, align 8
  %85 = getelementptr inbounds %struct.Pdr_Man_t_, ptr %84, i32 0, i32 27
  %86 = load ptr, ptr %85, align 8
  %87 = load i32, ptr %13, align 4
  %88 = load i32, ptr %9, align 4
  %89 = load ptr, ptr %8, align 8
  %90 = getelementptr inbounds %struct.Pdr_Set_t_, ptr %89, i32 0, i32 4
  %91 = load i32, ptr %12, align 4
  %92 = sext i32 %91 to i64
  %93 = getelementptr inbounds [0 x i32], ptr %90, i64 0, i64 %92
  %94 = load i32, ptr %93, align 4
  %95 = call i32 @Abc_LitIsCompl(i32 noundef %94)
  %96 = xor i32 %88, %95
  %97 = call i32 @Abc_Var2Lit(i32 noundef %87, i32 noundef %96)
  call void @Vec_IntPush(ptr noundef %86, i32 noundef %97)
  br label %98

98:                                               ; preds = %77, %34
  %99 = load i32, ptr %12, align 4
  %100 = add nsw i32 %99, 1
  store i32 %100, ptr %12, align 4
  br label %20, !llvm.loop !11

101:                                              ; preds = %20
  %102 = call i64 @Abc_Clock()
  %103 = load i64, ptr %15, align 8
  %104 = sub nsw i64 %102, %103
  %105 = load ptr, ptr %6, align 8
  %106 = getelementptr inbounds %struct.Pdr_Man_t_, ptr %105, i32 0, i32 65
  %107 = load i64, ptr %106, align 8
  %108 = add nsw i64 %107, %104
  store i64 %108, ptr %106, align 8
  %109 = load ptr, ptr %6, align 8
  %110 = getelementptr inbounds %struct.Pdr_Man_t_, ptr %109, i32 0, i32 27
  %111 = load ptr, ptr %110, align 8
  ret ptr %111
}