; Function Attrs: nounwind uwtable
define ptr @Pdr_ManCubeToLits(ptr noundef %0, i32 noundef %1, ptr noundef readonly captures(none) %2, i32 noundef %3, i32 noundef %4) local_unnamed_addr #0 {
  %6 = alloca %struct.timespec, align 8
  %7 = alloca %struct.timespec, align 8
  call void @llvm.lifetime.start.p0(i64 16, ptr nonnull %7)
  %8 = call i32 @clock_gettime(i32 noundef 1, ptr noundef nonnull %7) #8
  %9 = icmp slt i32 %8, 0
  br i1 %9, label %Abc_Clock.exit, label %10

10:                                               ; preds = %5
  %11 = load i64, ptr %7, align 8
  %.neg38 = mul i64 %11, -1000000
  %12 = getelementptr inbounds nuw i8, ptr %7, i64 8
  %13 = load i64, ptr %12, align 8
  %.neg = sdiv i64 %13, -1000
  %.neg39 = add i64 %.neg, %.neg38
  br label %Abc_Clock.exit

Abc_Clock.exit:                                   ; preds = %5, %10
  %.0.i.neg = phi i64 [ %.neg39, %10 ], [ 1, %5 ]
  call void @llvm.lifetime.end.p0(i64 16, ptr nonnull %7)
  %14 = getelementptr inbounds nuw i8, ptr %0, i64 200
  %15 = load ptr, ptr %14, align 8
  %16 = getelementptr inbounds nuw i8, ptr %15, i64 4
  store i32 0, ptr %16, align 4
  %17 = getelementptr inbounds nuw i8, ptr %2, i64 16
  %18 = load i32, ptr %17, align 8
  %19 = icmp sgt i32 %18, 0
  br i1 %19, label %.lr.ph, label %._crit_edge

.lr.ph:                                           ; preds = %Abc_Clock.exit
  %20 = getelementptr inbounds nuw i8, ptr %2, i64 20
  %.not = icmp eq i32 %4, 0
  %21 = getelementptr inbounds nuw i8, ptr %0, i64 8
  br label %22

22:                                               ; preds = %.lr.ph, %85
  %23 = phi i32 [ %18, %.lr.ph ], [ %86, %85 ]
  %indvars.iv = phi i64 [ 0, %.lr.ph ], [ %indvars.iv.next, %85 ]
  %24 = getelementptr inbounds nuw [0 x i32], ptr %20, i64 0, i64 %indvars.iv
  %25 = load i32, ptr %24, align 4
  %26 = icmp eq i32 %25, -1
  br i1 %26, label %85, label %27

27:                                               ; preds = %22
  %28 = load ptr, ptr %21, align 8
  %29 = ashr i32 %25, 1
  br i1 %.not, label %.thread, label %36

.thread:                                          ; preds = %27
  %30 = getelementptr i8, ptr %28, i64 16
  %.val32 = load ptr, ptr %30, align 8
  %31 = getelementptr i8, ptr %28, i64 108
  %.val33 = load i32, ptr %31, align 4
  %32 = getelementptr i8, ptr %.val32, i64 8
  %.val32.val = load ptr, ptr %32, align 8
  %33 = add nsw i32 %.val33, %29
  %34 = sext i32 %33 to i64
  %35 = getelementptr inbounds ptr, ptr %.val32.val, i64 %34
  br label %45

36:                                               ; preds = %27
  %37 = getelementptr i8, ptr %28, i64 24
  %.val = load ptr, ptr %37, align 8
  %38 = getelementptr i8, ptr %28, i64 112
  %.val31 = load i32, ptr %38, align 8
  %39 = getelementptr i8, ptr %.val, i64 8
  %.val.val = load ptr, ptr %39, align 8
  %40 = add nsw i32 %.val31, %29
  %41 = sext i32 %40 to i64
  %42 = getelementptr inbounds ptr, ptr %.val.val, i64 %41
  %43 = and i32 %25, 1
  %44 = sub nuw nsw i32 2, %43
  br label %45

45:                                               ; preds = %.thread, %36
  %.037.in = phi ptr [ %42, %36 ], [ %35, %.thread ]
  %46 = phi i32 [ %44, %36 ], [ 3, %.thread ]
  %.037 = load ptr, ptr %.037.in, align 8
  %47 = call i32 @Pdr_ObjSatVar(ptr noundef nonnull %0, i32 noundef %1, i32 noundef %46, ptr noundef %.037) #8
  %48 = load ptr, ptr %14, align 8
  %49 = load i32, ptr %24, align 4
  %50 = and i32 %49, 1
  %51 = xor i32 %50, %3
  %52 = shl nsw i32 %47, 1
  %53 = add nsw i32 %51, %52
  %54 = getelementptr inbounds nuw i8, ptr %48, i64 4
  %55 = load i32, ptr %54, align 4
  %56 = load i32, ptr %48, align 8
  %57 = icmp eq i32 %55, %56
  br i1 %57, label %58, label %.Vec_IntGrow.exit10_crit_edge.i

.Vec_IntGrow.exit10_crit_edge.i:                  ; preds = %45
  %.phi.trans.insert.i = getelementptr inbounds nuw i8, ptr %48, i64 8
  %.pre.i = load ptr, ptr %.phi.trans.insert.i, align 8
  br label %Vec_IntPush.exit

58:                                               ; preds = %45
  %59 = icmp slt i32 %55, 16
  br i1 %59, label %60, label %68

60:                                               ; preds = %58
  %61 = getelementptr inbounds nuw i8, ptr %48, i64 8
  %62 = load ptr, ptr %61, align 8
  %.not9.i.i = icmp eq ptr %62, null
  br i1 %.not9.i.i, label %65, label %63

63:                                               ; preds = %60
  %64 = call dereferenceable_or_null(64) ptr @realloc(ptr noundef nonnull %62, i64 noundef 64) #9
  br label %Vec_IntGrow.exit.i

65:                                               ; preds = %60
  %66 = call noalias dereferenceable_or_null(64) ptr @malloc(i64 noundef 64) #10
  br label %Vec_IntGrow.exit.i

Vec_IntGrow.exit.i:                               ; preds = %65, %63
  %67 = phi ptr [ %64, %63 ], [ %66, %65 ]
  store ptr %67, ptr %61, align 8
  store i32 16, ptr %48, align 8
  br label %Vec_IntPush.exit

68:                                               ; preds = %58
  %69 = shl nuw nsw i32 %55, 1
  %70 = getelementptr inbounds nuw i8, ptr %48, i64 8
  %71 = load ptr, ptr %70, align 8
  %.not9.i9.i = icmp eq ptr %71, null
  %72 = zext nneg i32 %69 to i64
  %73 = shl nuw nsw i64 %72, 2
  br i1 %.not9.i9.i, label %76, label %74

74:                                               ; preds = %68
  %75 = call ptr @realloc(ptr noundef nonnull %71, i64 noundef %73) #9
  br label %78

76:                                               ; preds = %68
  %77 = call noalias ptr @malloc(i64 noundef %73) #10
  br label %78

78:                                               ; preds = %76, %74
  %79 = phi ptr [ %75, %74 ], [ %77, %76 ]
  store ptr %79, ptr %70, align 8
  store i32 %69, ptr %48, align 8
  br label %Vec_IntPush.exit

Vec_IntPush.exit:                                 ; preds = %.Vec_IntGrow.exit10_crit_edge.i, %Vec_IntGrow.exit.i, %78
  %80 = phi ptr [ %.pre.i, %.Vec_IntGrow.exit10_crit_edge.i ], [ %79, %78 ], [ %67, %Vec_IntGrow.exit.i ]
  %81 = load i32, ptr %54, align 4
  %82 = add nsw i32 %81, 1
  store i32 %82, ptr %54, align 4
  %83 = sext i32 %81 to i64
  %84 = getelementptr inbounds i32, ptr %80, i64 %83
  store i32 %53, ptr %84, align 4
  %.pre = load i32, ptr %17, align 8
  br label %85

85:                                               ; preds = %22, %Vec_IntPush.exit
  %86 = phi i32 [ %23, %22 ], [ %.pre, %Vec_IntPush.exit ]
  %indvars.iv.next = add nuw nsw i64 %indvars.iv, 1
  %87 = sext i32 %86 to i64
  %88 = icmp slt i64 %indvars.iv.next, %87
  br i1 %88, label %22, label %._crit_edge, !llvm.loop !11

._crit_edge:                                      ; preds = %85, %Abc_Clock.exit
  call void @llvm.lifetime.start.p0(i64 16, ptr nonnull %6)
  %89 = call i32 @clock_gettime(i32 noundef 1, ptr noundef nonnull %6) #8
  %90 = icmp slt i32 %89, 0
  br i1 %90, label %Abc_Clock.exit35, label %91

91:                                               ; preds = %._crit_edge
  %92 = load i64, ptr %6, align 8
  %93 = mul nsw i64 %92, 1000000
  %94 = getelementptr inbounds nuw i8, ptr %6, i64 8
  %95 = load i64, ptr %94, align 8
  %96 = sdiv i64 %95, 1000
  %97 = add nsw i64 %96, %93
  br label %Abc_Clock.exit35

Abc_Clock.exit35:                                 ; preds = %._crit_edge, %91
  %.0.i34 = phi i64 [ %97, %91 ], [ -1, %._crit_edge ]
  call void @llvm.lifetime.end.p0(i64 16, ptr nonnull %6)
  %98 = add i64 %.0.i34, %.0.i.neg
  %99 = getelementptr inbounds nuw i8, ptr %0, i64 440
  %100 = load i64, ptr %99, align 8
  %101 = add nsw i64 %98, %100
  store i64 %101, ptr %99, align 8
  %102 = load ptr, ptr %14, align 8
  ret ptr %102
}